; Function Attrs: nounwind uwtable
define ptr @l_Lean_PersistentHashMap_find_x3f___at___private_Lean_Meta_Tactic_Grind_Internalize_0__Lean_Meta_Grind_addSplitCandidatesForExt_found___spec__1(ptr noundef %0, ptr noundef readonly captures(none) %1) local_unnamed_addr #1 {
  %3 = getelementptr inbounds nuw i8, ptr %1, i64 8
  %4 = load ptr, ptr %3, align 8, !tbaa !9
  %5 = getelementptr inbounds nuw i8, ptr %1, i64 16
  %6 = load ptr, ptr %5, align 8, !tbaa !9
  %7 = tail call i64 @l_Lean_Expr_hash(ptr noundef %4) #4
  %8 = ptrtoint ptr %6 to i64
  %9 = and i64 %8, 1
  %.not.i = icmp eq i64 %9, 0
  br i1 %.not.i, label %12, label %10

10:                                               ; preds = %2
  %11 = lshr i64 %8, 1
  br label %lean_uint64_of_nat.exit

12:                                               ; preds = %2
  %13 = tail call i64 @lean_uint64_of_big_nat(ptr noundef %6) #4
  br label %lean_uint64_of_nat.exit

lean_uint64_of_nat.exit:                          ; preds = %10, %12
  %14 = phi i64 [ %11, %10 ], [ %13, %12 ]
  %15 = tail call i64 @lean_uint64_mix_hash(i64 noundef %7, i64 noundef %14) #4
  %16 = tail call ptr @l_Lean_PersistentHashMap_findAux___at___private_Lean_Meta_Tactic_Grind_Internalize_0__Lean_Meta_Grind_addSplitCandidatesForExt_found___spec__2(ptr noundef %0, i64 noundef %15, ptr noundef nonnull %1)
  ret ptr %16
}